   1               		.file	"gpt_lld.c"
   2               	__SP_H__ = 0x3e
   3               	__SP_L__ = 0x3d
   4               	__SREG__ = 0x3f
   5               	__RAMPZ__ = 0x3b
   6               	__tmp_reg__ = 0
   7               	__zero_reg__ = 1
   8               		.text
   9               	.Ltext0:
  11               	gpt_lld_dummy_callback:
  12               	.LFB1:
  13               		.file 1 "../../../os/hal/platforms/AVR/gpt_lld.c"
   1:../../../os/hal/platforms/AVR/gpt_lld.c **** /*
   2:../../../os/hal/platforms/AVR/gpt_lld.c ****     ChibiOS/RT - Copyright (C) 2006,2007,2008,2009,2010,
   3:../../../os/hal/platforms/AVR/gpt_lld.c ****                  2011,2012 Giovanni Di Sirio.
   4:../../../os/hal/platforms/AVR/gpt_lld.c **** 
   5:../../../os/hal/platforms/AVR/gpt_lld.c ****     This file is part of ChibiOS/RT.
   6:../../../os/hal/platforms/AVR/gpt_lld.c **** 
   7:../../../os/hal/platforms/AVR/gpt_lld.c ****     ChibiOS/RT is free software; you can redistribute it and/or modify
   8:../../../os/hal/platforms/AVR/gpt_lld.c ****     it under the terms of the GNU General Public License as published by
   9:../../../os/hal/platforms/AVR/gpt_lld.c ****     the Free Software Foundation; either version 3 of the License, or
  10:../../../os/hal/platforms/AVR/gpt_lld.c ****     (at your option) any later version.
  11:../../../os/hal/platforms/AVR/gpt_lld.c **** 
  12:../../../os/hal/platforms/AVR/gpt_lld.c ****     ChibiOS/RT is distributed in the hope that it will be useful,
  13:../../../os/hal/platforms/AVR/gpt_lld.c ****     but WITHOUT ANY WARRANTY; without even the implied warranty of
  14:../../../os/hal/platforms/AVR/gpt_lld.c ****     MERCHANTABILITY or FITNESS FOR A PARTICULAR PURPOSE.  See the
  15:../../../os/hal/platforms/AVR/gpt_lld.c ****     GNU General Public License for more details.
  16:../../../os/hal/platforms/AVR/gpt_lld.c **** 
  17:../../../os/hal/platforms/AVR/gpt_lld.c ****     You should have received a copy of the GNU General Public License
  18:../../../os/hal/platforms/AVR/gpt_lld.c ****     along with this program.  If not, see <http://www.gnu.org/licenses/>.
  19:../../../os/hal/platforms/AVR/gpt_lld.c **** */
  20:../../../os/hal/platforms/AVR/gpt_lld.c **** 
  21:../../../os/hal/platforms/AVR/gpt_lld.c **** /**
  22:../../../os/hal/platforms/AVR/gpt_lld.c ****  * @file    templates/gpt_lld.c
  23:../../../os/hal/platforms/AVR/gpt_lld.c ****  * @brief   GPT Driver subsystem low level driver source template.
  24:../../../os/hal/platforms/AVR/gpt_lld.c ****  *
  25:../../../os/hal/platforms/AVR/gpt_lld.c ****  * @addtogroup GPT
  26:../../../os/hal/platforms/AVR/gpt_lld.c ****  * @{
  27:../../../os/hal/platforms/AVR/gpt_lld.c ****  */
  28:../../../os/hal/platforms/AVR/gpt_lld.c **** 
  29:../../../os/hal/platforms/AVR/gpt_lld.c **** #include "ch.h"
  30:../../../os/hal/platforms/AVR/gpt_lld.c **** #include "hal.h"
  31:../../../os/hal/platforms/AVR/gpt_lld.c **** 
  32:../../../os/hal/platforms/AVR/gpt_lld.c **** #if HAL_USE_GPT || defined(__DOXYGEN__)
  33:../../../os/hal/platforms/AVR/gpt_lld.c **** 
  34:../../../os/hal/platforms/AVR/gpt_lld.c **** /*===========================================================================*/
  35:../../../os/hal/platforms/AVR/gpt_lld.c **** /* Driver local definitions.                                                 */
  36:../../../os/hal/platforms/AVR/gpt_lld.c **** /*===========================================================================*/
  37:../../../os/hal/platforms/AVR/gpt_lld.c **** 
  38:../../../os/hal/platforms/AVR/gpt_lld.c **** /*===========================================================================*/
  39:../../../os/hal/platforms/AVR/gpt_lld.c **** /* Driver exported variables.                                                */
  40:../../../os/hal/platforms/AVR/gpt_lld.c **** /*===========================================================================*/
  41:../../../os/hal/platforms/AVR/gpt_lld.c **** #if USE_AVR_GPT1 || defined(__DOXYGEN__)
  42:../../../os/hal/platforms/AVR/gpt_lld.c **** GPTDriver GPTD1;
  43:../../../os/hal/platforms/AVR/gpt_lld.c **** #endif
  44:../../../os/hal/platforms/AVR/gpt_lld.c **** #if USE_AVR_GPT2 || defined(__DOXYGEN__)
  45:../../../os/hal/platforms/AVR/gpt_lld.c **** GPTDriver GPTD2;
  46:../../../os/hal/platforms/AVR/gpt_lld.c **** #endif
  47:../../../os/hal/platforms/AVR/gpt_lld.c **** #if USE_AVR_GPT3 || defined(__DOXYGEN__)
  48:../../../os/hal/platforms/AVR/gpt_lld.c **** GPTDriver GPTD3;
  49:../../../os/hal/platforms/AVR/gpt_lld.c **** #endif
  50:../../../os/hal/platforms/AVR/gpt_lld.c **** #if USE_AVR_GPT4 || defined(__DOXYGEN__)
  51:../../../os/hal/platforms/AVR/gpt_lld.c **** GPTDriver GPTD4;
  52:../../../os/hal/platforms/AVR/gpt_lld.c **** #endif
  53:../../../os/hal/platforms/AVR/gpt_lld.c **** #if USE_AVR_GPT5 || defined(__DOXYGEN__)
  54:../../../os/hal/platforms/AVR/gpt_lld.c **** GPTDriver GPTD5;
  55:../../../os/hal/platforms/AVR/gpt_lld.c **** #endif
  56:../../../os/hal/platforms/AVR/gpt_lld.c **** /*===========================================================================*/
  57:../../../os/hal/platforms/AVR/gpt_lld.c **** /* Driver local variables.                                                   */
  58:../../../os/hal/platforms/AVR/gpt_lld.c **** /*===========================================================================*/
  59:../../../os/hal/platforms/AVR/gpt_lld.c **** 
  60:../../../os/hal/platforms/AVR/gpt_lld.c **** /*===========================================================================*/
  61:../../../os/hal/platforms/AVR/gpt_lld.c **** /* Driver local functions.                                                   */
  62:../../../os/hal/platforms/AVR/gpt_lld.c **** /*===========================================================================*/
  63:../../../os/hal/platforms/AVR/gpt_lld.c **** static void gpt_lld_serve_interrupt(GPTDriver *gptp) {
  64:../../../os/hal/platforms/AVR/gpt_lld.c **** 
  65:../../../os/hal/platforms/AVR/gpt_lld.c ****   gptp->counter++;
  66:../../../os/hal/platforms/AVR/gpt_lld.c ****   if(gptp->counter == gptp->period)
  67:../../../os/hal/platforms/AVR/gpt_lld.c ****   {
  68:../../../os/hal/platforms/AVR/gpt_lld.c **** 	gptp->counter = 0;
  69:../../../os/hal/platforms/AVR/gpt_lld.c **** 	if (gptp->state == GPT_ONESHOT) {
  70:../../../os/hal/platforms/AVR/gpt_lld.c **** 	    gptp->state = GPT_READY;                /* Back in GPT_READY state.     */
  71:../../../os/hal/platforms/AVR/gpt_lld.c **** 	    gpt_lld_stop_timer(gptp);               /* Timer automatically stopped. */
  72:../../../os/hal/platforms/AVR/gpt_lld.c **** 	}
  73:../../../os/hal/platforms/AVR/gpt_lld.c **** 	gptp->callback(gptp);
  74:../../../os/hal/platforms/AVR/gpt_lld.c ****   }
  75:../../../os/hal/platforms/AVR/gpt_lld.c **** 
  76:../../../os/hal/platforms/AVR/gpt_lld.c ****   
  77:../../../os/hal/platforms/AVR/gpt_lld.c **** }
  78:../../../os/hal/platforms/AVR/gpt_lld.c **** 
  79:../../../os/hal/platforms/AVR/gpt_lld.c **** static void gpt_lld_dummy_callback(GPTDriver *gptp)
  80:../../../os/hal/platforms/AVR/gpt_lld.c **** {
  14               		.loc 1 80 0
  15               	.LVL0:
  16               	/* prologue: function */
  17               	/* frame size = 0 */
  18               	/* stack size = 0 */
  19               	.L__stack_usage = 0
  20 0000 0895      		ret
  21               	.LFE1:
  23               	.global	gpt_lld_init
  25               	gpt_lld_init:
  26               	.LFB4:
  81:../../../os/hal/platforms/AVR/gpt_lld.c **** }
  82:../../../os/hal/platforms/AVR/gpt_lld.c **** 
  83:../../../os/hal/platforms/AVR/gpt_lld.c **** 
  84:../../../os/hal/platforms/AVR/gpt_lld.c **** /*===========================================================================*/
  85:../../../os/hal/platforms/AVR/gpt_lld.c **** /* Driver interrupt handlers.                                                */
  86:../../../os/hal/platforms/AVR/gpt_lld.c **** /*===========================================================================*/
  87:../../../os/hal/platforms/AVR/gpt_lld.c **** 
  88:../../../os/hal/platforms/AVR/gpt_lld.c **** #if USE_AVR_GPT1 || defined(__DOXYGEN__)
  89:../../../os/hal/platforms/AVR/gpt_lld.c **** CH_IRQ_HANDLER(TIMER1_COMPA_vect) {
  90:../../../os/hal/platforms/AVR/gpt_lld.c ****     CH_IRQ_PROLOGUE();
  91:../../../os/hal/platforms/AVR/gpt_lld.c ****       gpt_lld_serve_interrupt(&GPTD1);
  92:../../../os/hal/platforms/AVR/gpt_lld.c ****     CH_IRQ_EPILOGUE();
  93:../../../os/hal/platforms/AVR/gpt_lld.c **** }
  94:../../../os/hal/platforms/AVR/gpt_lld.c **** #endif
  95:../../../os/hal/platforms/AVR/gpt_lld.c **** 
  96:../../../os/hal/platforms/AVR/gpt_lld.c **** #if USE_AVR_GPT2 || defined(__DOXYGEN__)
  97:../../../os/hal/platforms/AVR/gpt_lld.c **** CH_IRQ_HANDLER(TIMER2_COMPA_vect) {
  98:../../../os/hal/platforms/AVR/gpt_lld.c ****     CH_IRQ_PROLOGUE();
  99:../../../os/hal/platforms/AVR/gpt_lld.c ****       gpt_lld_serve_interrupt(&GPTD2);
 100:../../../os/hal/platforms/AVR/gpt_lld.c ****     CH_IRQ_EPILOGUE();
 101:../../../os/hal/platforms/AVR/gpt_lld.c **** }
 102:../../../os/hal/platforms/AVR/gpt_lld.c **** #endif
 103:../../../os/hal/platforms/AVR/gpt_lld.c **** 
 104:../../../os/hal/platforms/AVR/gpt_lld.c **** #if USE_AVR_GPT3 || defined(__DOXYGEN__)
 105:../../../os/hal/platforms/AVR/gpt_lld.c **** CH_IRQ_HANDLER(TIMER3_COMPA_vect) {
 106:../../../os/hal/platforms/AVR/gpt_lld.c ****     CH_IRQ_PROLOGUE();
 107:../../../os/hal/platforms/AVR/gpt_lld.c ****       gpt_lld_serve_interrupt(&GPTD3);
 108:../../../os/hal/platforms/AVR/gpt_lld.c ****     CH_IRQ_EPILOGUE();
 109:../../../os/hal/platforms/AVR/gpt_lld.c **** }
 110:../../../os/hal/platforms/AVR/gpt_lld.c **** #endif
 111:../../../os/hal/platforms/AVR/gpt_lld.c **** 
 112:../../../os/hal/platforms/AVR/gpt_lld.c **** #if USE_AVR_GPT4 || defined(__DOXYGEN__)
 113:../../../os/hal/platforms/AVR/gpt_lld.c **** CH_IRQ_HANDLER(TIMER4_COMPA_vect) {
 114:../../../os/hal/platforms/AVR/gpt_lld.c ****     CH_IRQ_PROLOGUE();
 115:../../../os/hal/platforms/AVR/gpt_lld.c ****       gpt_lld_serve_interrupt(&GPTD4);
 116:../../../os/hal/platforms/AVR/gpt_lld.c ****     CH_IRQ_EPILOGUE();
 117:../../../os/hal/platforms/AVR/gpt_lld.c **** }
 118:../../../os/hal/platforms/AVR/gpt_lld.c **** #endif
 119:../../../os/hal/platforms/AVR/gpt_lld.c **** 
 120:../../../os/hal/platforms/AVR/gpt_lld.c **** #if USE_AVR_GPT5 || defined(__DOXYGEN__)
 121:../../../os/hal/platforms/AVR/gpt_lld.c **** CH_IRQ_HANDLER(TIMER5_COMPA_vect) {
 122:../../../os/hal/platforms/AVR/gpt_lld.c ****     CH_IRQ_PROLOGUE();
 123:../../../os/hal/platforms/AVR/gpt_lld.c ****       gpt_lld_serve_interrupt(&GPTD5);
 124:../../../os/hal/platforms/AVR/gpt_lld.c ****     CH_IRQ_EPILOGUE();
 125:../../../os/hal/platforms/AVR/gpt_lld.c **** }
 126:../../../os/hal/platforms/AVR/gpt_lld.c **** #endif
 127:../../../os/hal/platforms/AVR/gpt_lld.c **** 
 128:../../../os/hal/platforms/AVR/gpt_lld.c **** /*===========================================================================*/
 129:../../../os/hal/platforms/AVR/gpt_lld.c **** /* Driver exported functions.                                                */
 130:../../../os/hal/platforms/AVR/gpt_lld.c **** /*===========================================================================*/
 131:../../../os/hal/platforms/AVR/gpt_lld.c **** 
 132:../../../os/hal/platforms/AVR/gpt_lld.c **** /**
 133:../../../os/hal/platforms/AVR/gpt_lld.c ****  * @brief   Low level GPT driver initialization.
 134:../../../os/hal/platforms/AVR/gpt_lld.c ****  *
 135:../../../os/hal/platforms/AVR/gpt_lld.c ****  * @notapi
 136:../../../os/hal/platforms/AVR/gpt_lld.c ****  */
 137:../../../os/hal/platforms/AVR/gpt_lld.c **** void gpt_lld_init(void) {
  27               		.loc 1 137 0
  28               	/* prologue: function */
  29               	/* frame size = 0 */
  30               	/* stack size = 0 */
  31               	.L__stack_usage = 0
 138:../../../os/hal/platforms/AVR/gpt_lld.c **** #if USE_AVR_GPT1 || defined(__DOXYGEN__)
 139:../../../os/hal/platforms/AVR/gpt_lld.c ****   gptObjectInit(&GPTD1);
  32               		.loc 1 139 0
  33 0002 80E0      		ldi r24,lo8(GPTD1)
  34 0004 90E0      		ldi r25,hi8(GPTD1)
  35 0006 0E94 0000 		call gptObjectInit
  36               	.LVL1:
 140:../../../os/hal/platforms/AVR/gpt_lld.c **** #endif
 141:../../../os/hal/platforms/AVR/gpt_lld.c ****   #if USE_AVR_GPT2 || defined(__DOXYGEN__)
 142:../../../os/hal/platforms/AVR/gpt_lld.c ****   gptObjectInit(&GPTD2);
  37               		.loc 1 142 0
  38 000a 80E0      		ldi r24,lo8(GPTD2)
  39 000c 90E0      		ldi r25,hi8(GPTD2)
  40 000e 0C94 0000 		jmp gptObjectInit
  41               	.LVL2:
  42               	.LFE4:
  44               	.global	gpt_lld_start
  46               	gpt_lld_start:
  47               	.LFB5:
 143:../../../os/hal/platforms/AVR/gpt_lld.c **** #endif
 144:../../../os/hal/platforms/AVR/gpt_lld.c ****     #if USE_AVR_GPT3 || defined(__DOXYGEN__)
 145:../../../os/hal/platforms/AVR/gpt_lld.c ****   gptObjectInit(&GPTD3);
 146:../../../os/hal/platforms/AVR/gpt_lld.c **** #endif
 147:../../../os/hal/platforms/AVR/gpt_lld.c ****     #if USE_AVR_GPT4 || defined(__DOXYGEN__)
 148:../../../os/hal/platforms/AVR/gpt_lld.c ****   gptObjectInit(&GPTD4);
 149:../../../os/hal/platforms/AVR/gpt_lld.c **** #endif
 150:../../../os/hal/platforms/AVR/gpt_lld.c ****     #if USE_AVR_GPT5 || defined(__DOXYGEN__)
 151:../../../os/hal/platforms/AVR/gpt_lld.c ****   gptObjectInit(&GPTD5);
 152:../../../os/hal/platforms/AVR/gpt_lld.c **** #endif
 153:../../../os/hal/platforms/AVR/gpt_lld.c **** }
 154:../../../os/hal/platforms/AVR/gpt_lld.c **** 
 155:../../../os/hal/platforms/AVR/gpt_lld.c **** /**
 156:../../../os/hal/platforms/AVR/gpt_lld.c ****  * @brief   Configures and activates the GPT peripheral.
 157:../../../os/hal/platforms/AVR/gpt_lld.c ****  *
 158:../../../os/hal/platforms/AVR/gpt_lld.c ****  * @param[in] gptp      pointer to the @p GPTDriver object
 159:../../../os/hal/platforms/AVR/gpt_lld.c ****  *
 160:../../../os/hal/platforms/AVR/gpt_lld.c ****  * @notapi
 161:../../../os/hal/platforms/AVR/gpt_lld.c ****  */
 162:../../../os/hal/platforms/AVR/gpt_lld.c **** void gpt_lld_start(GPTDriver *gptp) {
  48               		.loc 1 162 0
  49               	.LVL3:
  50 0012 CF92      		push r12
  51               	.LCFI0:
  52 0014 DF92      		push r13
  53               	.LCFI1:
  54 0016 EF92      		push r14
  55               	.LCFI2:
  56 0018 FF92      		push r15
  57               	.LCFI3:
  58               	/* prologue: function */
  59               	/* frame size = 0 */
  60               	/* stack size = 4 */
  61               	.L__stack_usage = 4
 163:../../../os/hal/platforms/AVR/gpt_lld.c ****   uint8_t psc;
 164:../../../os/hal/platforms/AVR/gpt_lld.c **** 
 165:../../../os/hal/platforms/AVR/gpt_lld.c ****   if (gptp->state == GPT_STOP) {
  62               		.loc 1 165 0
  63 001a FC01      		movw r30,r24
  64 001c 2081      		ld r18,Z
 166:../../../os/hal/platforms/AVR/gpt_lld.c ****     /* Clock activation.*/
 167:../../../os/hal/platforms/AVR/gpt_lld.c **** 
 168:../../../os/hal/platforms/AVR/gpt_lld.c ****   }
 169:../../../os/hal/platforms/AVR/gpt_lld.c ****   /* Configuration.*/
 170:../../../os/hal/platforms/AVR/gpt_lld.c **** 
 171:../../../os/hal/platforms/AVR/gpt_lld.c **** #if USE_AVR_GPT1 || defined(__DOXYGEN__)
 172:../../../os/hal/platforms/AVR/gpt_lld.c ****   if(gptp == &GPTD1)
  65               		.loc 1 172 0
  66 001e F0E0      		ldi r31,hi8(GPTD1)
  67 0020 8030      		cpi r24,lo8(GPTD1)
  68 0022 9F07      		cpc r25,r31
  69 0024 01F4      		brne .+2
  70 0026 00C0      		rjmp .L7
 173:../../../os/hal/platforms/AVR/gpt_lld.c ****   {
 174:../../../os/hal/platforms/AVR/gpt_lld.c ****       psc = findBestPrescaler(gptp->config->frequency,ratio_base,clock_source_base,PRESCALER_SIZE_B
 175:../../../os/hal/platforms/AVR/gpt_lld.c ****       gptp->clock_source = clock_source_base[psc] & 0x07;
 176:../../../os/hal/platforms/AVR/gpt_lld.c ****       TCCR1A  = (0 << WGM11) | (0 << WGM10) | (0 << COM1A1) | (0 << COM1A0) |(0 << COM1B1) | (0 << 
 177:../../../os/hal/platforms/AVR/gpt_lld.c ****       TCCR1B  = (1 << WGM12);
 178:../../../os/hal/platforms/AVR/gpt_lld.c ****       OCR1A = F_CPU / ratio_base[psc] /gptp->config->frequency - 1;      
 179:../../../os/hal/platforms/AVR/gpt_lld.c ****   }
 180:../../../os/hal/platforms/AVR/gpt_lld.c **** #endif
 181:../../../os/hal/platforms/AVR/gpt_lld.c ****   #if USE_AVR_GPT2 || defined(__DOXYGEN__)
 182:../../../os/hal/platforms/AVR/gpt_lld.c ****   if(gptp == &GPTD2)
  71               		.loc 1 182 0
  72 0028 8050      		subi r24,lo8(GPTD2)
  73 002a 9040      		sbci r25,hi8(GPTD2)
  74 002c 01F0      		breq .L8
  75               	.LVL4:
  76               	.L3:
  77               	/* epilogue start */
 183:../../../os/hal/platforms/AVR/gpt_lld.c ****   {
 184:../../../os/hal/platforms/AVR/gpt_lld.c ****       psc = findBestPrescaler(gptp->config->frequency,ratio_extended,clock_source_extended,PRESCALE
 185:../../../os/hal/platforms/AVR/gpt_lld.c ****       gptp->clock_source = clock_source_extended[psc] & 0x07;
 186:../../../os/hal/platforms/AVR/gpt_lld.c ****       TCCR2A  = (1 << WGM21) | (0 << WGM20);
 187:../../../os/hal/platforms/AVR/gpt_lld.c ****       TCCR2B  = (0 << WGM22);
 188:../../../os/hal/platforms/AVR/gpt_lld.c ****       OCR2A = F_CPU / ratio_extended[psc] /gptp->config->frequency - 1;      
 189:../../../os/hal/platforms/AVR/gpt_lld.c ****   }
 190:../../../os/hal/platforms/AVR/gpt_lld.c **** #endif
 191:../../../os/hal/platforms/AVR/gpt_lld.c ****   
 192:../../../os/hal/platforms/AVR/gpt_lld.c **** #if USE_AVR_GPT3 || defined(__DOXYGEN__)
 193:../../../os/hal/platforms/AVR/gpt_lld.c ****   if(gptp == &GPTD3)
 194:../../../os/hal/platforms/AVR/gpt_lld.c ****   {
 195:../../../os/hal/platforms/AVR/gpt_lld.c ****       psc = findBestPrescaler(gptp->config->frequency,ratio_base,clock_source_base,PRESCALER_SIZE_B
 196:../../../os/hal/platforms/AVR/gpt_lld.c ****       gptp->clock_source = clock_source_base[psc] & 0x07;
 197:../../../os/hal/platforms/AVR/gpt_lld.c ****       TCCR3A  = (0 << WGM11) | (0 << WGM10) | (0 << COM1A1) | (0 << COM1A0) |(0 << COM1B1) | (0 << 
 198:../../../os/hal/platforms/AVR/gpt_lld.c ****       TCCR3B  = (1 << WGM12);
 199:../../../os/hal/platforms/AVR/gpt_lld.c ****       OCR3A = F_CPU / ratio_base[psc] /gptp->config->frequency - 1;      
 200:../../../os/hal/platforms/AVR/gpt_lld.c ****   }
 201:../../../os/hal/platforms/AVR/gpt_lld.c **** #endif
 202:../../../os/hal/platforms/AVR/gpt_lld.c **** #if USE_AVR_GPT4 || defined(__DOXYGEN__)
 203:../../../os/hal/platforms/AVR/gpt_lld.c ****   if(gptp == &GPTD4)
 204:../../../os/hal/platforms/AVR/gpt_lld.c ****   {
 205:../../../os/hal/platforms/AVR/gpt_lld.c ****       psc = findBestPrescaler(gptp->config->frequency,ratio_base,clock_source_base,PRESCALER_SIZE_B
 206:../../../os/hal/platforms/AVR/gpt_lld.c ****       gptp->clock_source = clock_source_base[psc] & 0x07;
 207:../../../os/hal/platforms/AVR/gpt_lld.c ****       TCCR4A  = (0 << WGM11) | (0 << WGM10) | (0 << COM1A1) | (0 << COM1A0) |(0 << COM1B1) | (0 << 
 208:../../../os/hal/platforms/AVR/gpt_lld.c ****       TCCR4B  = (1 << WGM12);
 209:../../../os/hal/platforms/AVR/gpt_lld.c ****       OCR4A = F_CPU / ratio_base[psc] /gptp->config->frequency - 1;      
 210:../../../os/hal/platforms/AVR/gpt_lld.c ****   }
 211:../../../os/hal/platforms/AVR/gpt_lld.c **** #endif
 212:../../../os/hal/platforms/AVR/gpt_lld.c **** #if USE_AVR_GPT5 || defined(__DOXYGEN__)
 213:../../../os/hal/platforms/AVR/gpt_lld.c ****   if(gptp == &GPTD5)
 214:../../../os/hal/platforms/AVR/gpt_lld.c ****   {
 215:../../../os/hal/platforms/AVR/gpt_lld.c ****       psc = findBestPrescaler(gptp->config->frequency,ratio_base,clock_source_base,PRESCALER_SIZE_B
 216:../../../os/hal/platforms/AVR/gpt_lld.c ****       gptp->clock_source = clock_source_base[psc] & 0x07;
 217:../../../os/hal/platforms/AVR/gpt_lld.c ****       TCCR5A  = (0 << WGM11) | (0 << WGM10) | (0 << COM1A1) | (0 << COM1A0) |(0 << COM1B1) | (0 << 
 218:../../../os/hal/platforms/AVR/gpt_lld.c ****       TCCR5B  = (1 << WGM12);
 219:../../../os/hal/platforms/AVR/gpt_lld.c ****       OCR5A = F_CPU / ratio_base[psc] /gptp->config->frequency - 1;      
 220:../../../os/hal/platforms/AVR/gpt_lld.c ****   }
 221:../../../os/hal/platforms/AVR/gpt_lld.c **** #endif
 222:../../../os/hal/platforms/AVR/gpt_lld.c ****   
 223:../../../os/hal/platforms/AVR/gpt_lld.c ****   
 224:../../../os/hal/platforms/AVR/gpt_lld.c ****   
 225:../../../os/hal/platforms/AVR/gpt_lld.c **** }
  78               		.loc 1 225 0
  79 002e FF90      		pop r15
  80 0030 EF90      		pop r14
  81 0032 DF90      		pop r13
  82 0034 CF90      		pop r12
  83 0036 0895      		ret
  84               	.LVL5:
  85               	.L8:
 184:../../../os/hal/platforms/AVR/gpt_lld.c ****       psc = findBestPrescaler(gptp->config->frequency,ratio_extended,clock_source_extended,PRESCALE
  86               		.loc 1 184 0
  87 0038 E091 0000 		lds r30,GPTD2+1
  88 003c F091 0000 		lds r31,GPTD2+1+1
  89 0040 27E0      		ldi r18,lo8(7)
  90 0042 40E0      		ldi r20,lo8(clock_source_extended)
  91 0044 50E0      		ldi r21,hi8(clock_source_extended)
  92 0046 60E0      		ldi r22,lo8(ratio_extended)
  93 0048 70E0      		ldi r23,hi8(ratio_extended)
  94 004a 8081      		ld r24,Z
  95 004c 9181      		ldd r25,Z+1
  96               	.LVL6:
  97 004e 0E94 0000 		call findBestPrescaler
  98               	.LVL7:
 185:../../../os/hal/platforms/AVR/gpt_lld.c ****       gptp->clock_source = clock_source_extended[psc] & 0x07;
  99               		.loc 1 185 0
 100 0052 E82F      		mov r30,r24
 101 0054 F0E0      		ldi r31,0
 102 0056 DF01      		movw r26,r30
 103 0058 A050      		subi r26,lo8(-(clock_source_extended))
 104 005a B040      		sbci r27,hi8(-(clock_source_extended))
 105 005c 8C91      		ld r24,X
 106               	.LVL8:
 107 005e 8770      		andi r24,lo8(7)
 108 0060 8093 0000 		sts GPTD2+3,r24
 186:../../../os/hal/platforms/AVR/gpt_lld.c ****       TCCR2A  = (1 << WGM21) | (0 << WGM20);
 109               		.loc 1 186 0
 110 0064 82E0      		ldi r24,lo8(2)
 111 0066 8093 B000 		sts 176,r24
 187:../../../os/hal/platforms/AVR/gpt_lld.c ****       TCCR2B  = (0 << WGM22);
 112               		.loc 1 187 0
 113 006a 1092 B100 		sts 177,__zero_reg__
 188:../../../os/hal/platforms/AVR/gpt_lld.c ****       OCR2A = F_CPU / ratio_extended[psc] /gptp->config->frequency - 1;      
 114               		.loc 1 188 0
 115 006e EE0F      		lsl r30
 116 0070 FF1F      		rol r31
 117               	.LVL9:
 118 0072 E050      		subi r30,lo8(-(ratio_extended))
 119 0074 F040      		sbci r31,hi8(-(ratio_extended))
 120 0076 2081      		ld r18,Z
 121 0078 3181      		ldd r19,Z+1
 122 007a 40E0      		ldi r20,0
 123 007c 50E0      		ldi r21,0
 124 007e 60E0      		ldi r22,0
 125 0080 74E2      		ldi r23,lo8(36)
 126 0082 84EF      		ldi r24,lo8(-12)
 127 0084 90E0      		ldi r25,0
 128 0086 0E94 0000 		call __udivmodsi4
 129 008a 6901      		movw r12,r18
 130 008c 7A01      		movw r14,r20
 131 008e E091 0000 		lds r30,GPTD2+1
 132 0092 F091 0000 		lds r31,GPTD2+1+1
 133 0096 2081      		ld r18,Z
 134 0098 3181      		ldd r19,Z+1
 135 009a 4281      		ldd r20,Z+2
 136 009c 5381      		ldd r21,Z+3
 137 009e C701      		movw r24,r14
 138 00a0 B601      		movw r22,r12
 139 00a2 0E94 0000 		call __udivmodsi4
 140 00a6 2150      		subi r18,lo8(-(-1))
 141 00a8 2093 B300 		sts 179,r18
 142               	/* epilogue start */
 143               		.loc 1 225 0
 144 00ac FF90      		pop r15
 145 00ae EF90      		pop r14
 146 00b0 DF90      		pop r13
 147 00b2 CF90      		pop r12
 148 00b4 0895      		ret
 149               	.LVL10:
 150               	.L7:
 174:../../../os/hal/platforms/AVR/gpt_lld.c ****       psc = findBestPrescaler(gptp->config->frequency,ratio_base,clock_source_base,PRESCALER_SIZE_B
 151               		.loc 1 174 0
 152 00b6 E091 0000 		lds r30,GPTD1+1
 153 00ba F091 0000 		lds r31,GPTD1+1+1
 154 00be 25E0      		ldi r18,lo8(5)
 155 00c0 40E0      		ldi r20,lo8(clock_source_base)
 156 00c2 50E0      		ldi r21,hi8(clock_source_base)
 157 00c4 60E0      		ldi r22,lo8(ratio_base)
 158 00c6 70E0      		ldi r23,hi8(ratio_base)
 159 00c8 8081      		ld r24,Z
 160 00ca 9181      		ldd r25,Z+1
 161               	.LVL11:
 162 00cc 0E94 0000 		call findBestPrescaler
 163               	.LVL12:
 175:../../../os/hal/platforms/AVR/gpt_lld.c ****       gptp->clock_source = clock_source_base[psc] & 0x07;
 164               		.loc 1 175 0
 165 00d0 E82F      		mov r30,r24
 166 00d2 F0E0      		ldi r31,0
 167 00d4 DF01      		movw r26,r30
 168 00d6 A050      		subi r26,lo8(-(clock_source_base))
 169 00d8 B040      		sbci r27,hi8(-(clock_source_base))
 170 00da 8C91      		ld r24,X
 171               	.LVL13:
 172 00dc 8770      		andi r24,lo8(7)
 173 00de 8093 0000 		sts GPTD1+3,r24
 176:../../../os/hal/platforms/AVR/gpt_lld.c ****       TCCR1A  = (0 << WGM11) | (0 << WGM10) | (0 << COM1A1) | (0 << COM1A0) |(0 << COM1B1) | (0 << 
 174               		.loc 1 176 0
 175 00e2 1092 8000 		sts 128,__zero_reg__
 177:../../../os/hal/platforms/AVR/gpt_lld.c ****       TCCR1B  = (1 << WGM12);
 176               		.loc 1 177 0
 177 00e6 88E0      		ldi r24,lo8(8)
 178 00e8 8093 8100 		sts 129,r24
 178:../../../os/hal/platforms/AVR/gpt_lld.c ****       OCR1A = F_CPU / ratio_base[psc] /gptp->config->frequency - 1;      
 179               		.loc 1 178 0
 180 00ec EE0F      		lsl r30
 181 00ee FF1F      		rol r31
 182               	.LVL14:
 183 00f0 E050      		subi r30,lo8(-(ratio_base))
 184 00f2 F040      		sbci r31,hi8(-(ratio_base))
 185 00f4 2081      		ld r18,Z
 186 00f6 3181      		ldd r19,Z+1
 187 00f8 40E0      		ldi r20,0
 188 00fa 50E0      		ldi r21,0
 189 00fc 60E0      		ldi r22,0
 190 00fe 74E2      		ldi r23,lo8(36)
 191 0100 84EF      		ldi r24,lo8(-12)
 192 0102 90E0      		ldi r25,0
 193 0104 0E94 0000 		call __udivmodsi4
 194 0108 6901      		movw r12,r18
 195 010a 7A01      		movw r14,r20
 196 010c E091 0000 		lds r30,GPTD1+1
 197 0110 F091 0000 		lds r31,GPTD1+1+1
 198 0114 2081      		ld r18,Z
 199 0116 3181      		ldd r19,Z+1
 200 0118 4281      		ldd r20,Z+2
 201 011a 5381      		ldd r21,Z+3
 202 011c C701      		movw r24,r14
 203 011e B601      		movw r22,r12
 204 0120 0E94 0000 		call __udivmodsi4
 205 0124 2150      		subi r18,1
 206 0126 3109      		sbc r19,__zero_reg__
 207 0128 3093 8900 		sts 136+1,r19
 208 012c 2093 8800 		sts 136,r18
 209 0130 00C0      		rjmp .L3
 210               	.LFE5:
 212               	.global	gpt_lld_start_timer
 214               	gpt_lld_start_timer:
 215               	.LFB7:
 226:../../../os/hal/platforms/AVR/gpt_lld.c **** 
 227:../../../os/hal/platforms/AVR/gpt_lld.c **** /**
 228:../../../os/hal/platforms/AVR/gpt_lld.c ****  * @brief   Deactivates the GPT peripheral.
 229:../../../os/hal/platforms/AVR/gpt_lld.c ****  *
 230:../../../os/hal/platforms/AVR/gpt_lld.c ****  * @param[in] gptp      pointer to the @p GPTDriver object
 231:../../../os/hal/platforms/AVR/gpt_lld.c ****  *
 232:../../../os/hal/platforms/AVR/gpt_lld.c ****  * @notapi
 233:../../../os/hal/platforms/AVR/gpt_lld.c ****  */
 234:../../../os/hal/platforms/AVR/gpt_lld.c **** void gpt_lld_stop(GPTDriver *gptp) {
 235:../../../os/hal/platforms/AVR/gpt_lld.c ****   /*nothing to be done*/
 236:../../../os/hal/platforms/AVR/gpt_lld.c ****   if (gptp->state == GPT_READY) {
 237:../../../os/hal/platforms/AVR/gpt_lld.c ****     /* Clock de-activation.*/
 238:../../../os/hal/platforms/AVR/gpt_lld.c **** 
 239:../../../os/hal/platforms/AVR/gpt_lld.c ****   }
 240:../../../os/hal/platforms/AVR/gpt_lld.c ****   gpt_lld_stop_timer(gptp);
 241:../../../os/hal/platforms/AVR/gpt_lld.c **** }
 242:../../../os/hal/platforms/AVR/gpt_lld.c **** 
 243:../../../os/hal/platforms/AVR/gpt_lld.c **** /**
 244:../../../os/hal/platforms/AVR/gpt_lld.c ****  * @brief   Starts the timer in continuous mode.
 245:../../../os/hal/platforms/AVR/gpt_lld.c ****  *
 246:../../../os/hal/platforms/AVR/gpt_lld.c ****  * @param[in] gptp      pointer to the @p GPTDriver object
 247:../../../os/hal/platforms/AVR/gpt_lld.c ****  * @param[in] period    period in ticks
 248:../../../os/hal/platforms/AVR/gpt_lld.c ****  *
 249:../../../os/hal/platforms/AVR/gpt_lld.c ****  * @notapi
 250:../../../os/hal/platforms/AVR/gpt_lld.c ****  */
 251:../../../os/hal/platforms/AVR/gpt_lld.c **** void gpt_lld_start_timer(GPTDriver *gptp, gptcnt_t period) {
 216               		.loc 1 251 0
 217               	.LVL15:
 218               	/* prologue: function */
 219               	/* frame size = 0 */
 220               	/* stack size = 0 */
 221               	.L__stack_usage = 0
 222 0132 FC01      		movw r30,r24
 252:../../../os/hal/platforms/AVR/gpt_lld.c ****       gptp->callback = gptp->config->callback;
 223               		.loc 1 252 0
 224 0134 A181      		ldd r26,Z+1
 225 0136 B281      		ldd r27,Z+2
 226 0138 1496      		adiw r26,4
 227 013a 8D91      		ld r24,X+
 228 013c 9C91      		ld r25,X
 229 013e 1597      		sbiw r26,4+1
 230               	.LVL16:
 231 0140 9187      		std Z+9,r25
 232 0142 8087      		std Z+8,r24
 253:../../../os/hal/platforms/AVR/gpt_lld.c ****       gptp->period = period;
 233               		.loc 1 253 0
 234 0144 7583      		std Z+5,r23
 235 0146 6483      		std Z+4,r22
 254:../../../os/hal/platforms/AVR/gpt_lld.c ****       gptp->counter = 0;
 236               		.loc 1 254 0
 237 0148 1782      		std Z+7,__zero_reg__
 238 014a 1682      		std Z+6,__zero_reg__
 255:../../../os/hal/platforms/AVR/gpt_lld.c ****   #if USE_AVR_GPT1 || defined(__DOXYGEN__)
 256:../../../os/hal/platforms/AVR/gpt_lld.c ****   if(gptp == &GPTD1)
 239               		.loc 1 256 0
 240 014c 80E0      		ldi r24,hi8(GPTD1)
 241 014e E030      		cpi r30,lo8(GPTD1)
 242 0150 F807      		cpc r31,r24
 243 0152 01F0      		breq .L12
 257:../../../os/hal/platforms/AVR/gpt_lld.c ****   {
 258:../../../os/hal/platforms/AVR/gpt_lld.c ****       TCNT1   = 0;                                           /* Reset counter.   */
 259:../../../os/hal/platforms/AVR/gpt_lld.c ****       TIFR1   = (1 << OCF1A);                                /* Reset pending.   */
 260:../../../os/hal/platforms/AVR/gpt_lld.c ****       TIMSK1  = (1 << OCIE1A);
 261:../../../os/hal/platforms/AVR/gpt_lld.c ****       TCCR1B  |= (gptp->clock_source <<CS10);
 262:../../../os/hal/platforms/AVR/gpt_lld.c ****   }
 263:../../../os/hal/platforms/AVR/gpt_lld.c **** #endif
 264:../../../os/hal/platforms/AVR/gpt_lld.c **** 
 265:../../../os/hal/platforms/AVR/gpt_lld.c ****     #if USE_AVR_GPT2 || defined(__DOXYGEN__)
 266:../../../os/hal/platforms/AVR/gpt_lld.c ****   if(gptp == &GPTD2)
 244               		.loc 1 266 0
 245 0154 E050      		subi r30,lo8(GPTD2)
 246 0156 F040      		sbci r31,hi8(GPTD2)
 247 0158 01F0      		breq .L13
 248 015a 0895      		ret
 249               	.L13:
 267:../../../os/hal/platforms/AVR/gpt_lld.c ****   {
 268:../../../os/hal/platforms/AVR/gpt_lld.c ****       TCNT2   = 0;                                           /* Reset counter.   */
 250               		.loc 1 268 0
 251 015c 1092 B200 		sts 178,__zero_reg__
 269:../../../os/hal/platforms/AVR/gpt_lld.c ****       TIFR2   = (1 << OCF2A);                                /* Reset pending.   */
 252               		.loc 1 269 0
 253 0160 82E0      		ldi r24,lo8(2)
 254 0162 87BB      		out 0x17,r24
 270:../../../os/hal/platforms/AVR/gpt_lld.c ****       TIMSK2  = (1 << OCIE2A);
 255               		.loc 1 270 0
 256 0164 8093 7000 		sts 112,r24
 271:../../../os/hal/platforms/AVR/gpt_lld.c ****       TCCR2B  |= (gptp->clock_source <<CS20);
 257               		.loc 1 271 0
 258 0168 8091 B100 		lds r24,177
 259 016c 9091 0000 		lds r25,GPTD2+3
 260 0170 892B      		or r24,r25
 261 0172 8093 B100 		sts 177,r24
 262 0176 0895      		ret
 263               	.L12:
 258:../../../os/hal/platforms/AVR/gpt_lld.c ****       TCNT1   = 0;                                           /* Reset counter.   */
 264               		.loc 1 258 0
 265 0178 1092 8500 		sts 132+1,__zero_reg__
 266 017c 1092 8400 		sts 132,__zero_reg__
 259:../../../os/hal/platforms/AVR/gpt_lld.c ****       TIFR1   = (1 << OCF1A);                                /* Reset pending.   */
 267               		.loc 1 259 0
 268 0180 82E0      		ldi r24,lo8(2)
 269 0182 86BB      		out 0x16,r24
 260:../../../os/hal/platforms/AVR/gpt_lld.c ****       TIMSK1  = (1 << OCIE1A);
 270               		.loc 1 260 0
 271 0184 8093 6F00 		sts 111,r24
 261:../../../os/hal/platforms/AVR/gpt_lld.c ****       TCCR1B  |= (gptp->clock_source <<CS10);
 272               		.loc 1 261 0
 273 0188 8091 8100 		lds r24,129
 274 018c 9091 0000 		lds r25,GPTD1+3
 275 0190 892B      		or r24,r25
 276 0192 8093 8100 		sts 129,r24
 277 0196 0895      		ret
 278               	.LFE7:
 280               	.global	gpt_lld_stop_timer
 282               	gpt_lld_stop_timer:
 283               	.LFB8:
 272:../../../os/hal/platforms/AVR/gpt_lld.c ****   }
 273:../../../os/hal/platforms/AVR/gpt_lld.c **** #endif
 274:../../../os/hal/platforms/AVR/gpt_lld.c **** 
 275:../../../os/hal/platforms/AVR/gpt_lld.c ****   #if USE_AVR_GPT3 || defined(__DOXYGEN__)
 276:../../../os/hal/platforms/AVR/gpt_lld.c ****   if(gptp == &GPTD3)
 277:../../../os/hal/platforms/AVR/gpt_lld.c ****   {
 278:../../../os/hal/platforms/AVR/gpt_lld.c ****       TCNT3   = 0;                                           /* Reset counter.   */
 279:../../../os/hal/platforms/AVR/gpt_lld.c ****       TIFR3   = (1 << OCF1A);                                /* Reset pending.   */
 280:../../../os/hal/platforms/AVR/gpt_lld.c ****       TIMSK3  = (1 << OCIE1A);
 281:../../../os/hal/platforms/AVR/gpt_lld.c ****       TCCR3B  |= (gptp->clock_source <<CS30);
 282:../../../os/hal/platforms/AVR/gpt_lld.c ****   }
 283:../../../os/hal/platforms/AVR/gpt_lld.c **** #endif
 284:../../../os/hal/platforms/AVR/gpt_lld.c ****   #if USE_AVR_GPT4 || defined(__DOXYGEN__)
 285:../../../os/hal/platforms/AVR/gpt_lld.c ****   if(gptp == &GPTD4)
 286:../../../os/hal/platforms/AVR/gpt_lld.c ****   {
 287:../../../os/hal/platforms/AVR/gpt_lld.c ****       TCNT4   = 0;                                           /* Reset counter.   */
 288:../../../os/hal/platforms/AVR/gpt_lld.c ****       TIFR4   = (1 << OCF1A);                                /* Reset pending.   */
 289:../../../os/hal/platforms/AVR/gpt_lld.c ****       TIMSK4  = (1 << OCIE1A);
 290:../../../os/hal/platforms/AVR/gpt_lld.c ****       TCCR4B  |= (gptp->clock_source <<CS40);
 291:../../../os/hal/platforms/AVR/gpt_lld.c ****   }
 292:../../../os/hal/platforms/AVR/gpt_lld.c **** #endif
 293:../../../os/hal/platforms/AVR/gpt_lld.c ****   #if USE_AVR_GPT5 || defined(__DOXYGEN__)
 294:../../../os/hal/platforms/AVR/gpt_lld.c ****   if(gptp == &GPTD5)
 295:../../../os/hal/platforms/AVR/gpt_lld.c ****   {
 296:../../../os/hal/platforms/AVR/gpt_lld.c ****       TCNT5   = 0;                                           /* Reset counter.   */
 297:../../../os/hal/platforms/AVR/gpt_lld.c ****       TIFR5   = (1 << OCF1A);                                /* Reset pending.   */
 298:../../../os/hal/platforms/AVR/gpt_lld.c ****       TIMSK5  = (1 << OCIE1A);
 299:../../../os/hal/platforms/AVR/gpt_lld.c ****       TCCR5B  |= (gptp->clock_source <<CS50);
 300:../../../os/hal/platforms/AVR/gpt_lld.c ****   }
 301:../../../os/hal/platforms/AVR/gpt_lld.c **** #endif
 302:../../../os/hal/platforms/AVR/gpt_lld.c **** }
 303:../../../os/hal/platforms/AVR/gpt_lld.c **** 
 304:../../../os/hal/platforms/AVR/gpt_lld.c **** /**
 305:../../../os/hal/platforms/AVR/gpt_lld.c ****  * @brief   Stops the timer.
 306:../../../os/hal/platforms/AVR/gpt_lld.c ****  *
 307:../../../os/hal/platforms/AVR/gpt_lld.c ****  * @param[in] gptp      pointer to the @p GPTDriver object
 308:../../../os/hal/platforms/AVR/gpt_lld.c ****  *
 309:../../../os/hal/platforms/AVR/gpt_lld.c ****  * @notapi
 310:../../../os/hal/platforms/AVR/gpt_lld.c ****  */
 311:../../../os/hal/platforms/AVR/gpt_lld.c **** void gpt_lld_stop_timer(GPTDriver *gptp) {
 284               		.loc 1 311 0
 285               	.LVL17:
 286               	/* prologue: function */
 287               	/* frame size = 0 */
 288               	/* stack size = 0 */
 289               	.L__stack_usage = 0
 312:../../../os/hal/platforms/AVR/gpt_lld.c ****     #if USE_AVR_GPT1 || defined(__DOXYGEN__)
 313:../../../os/hal/platforms/AVR/gpt_lld.c ****   if(gptp == &GPTD1)
 290               		.loc 1 313 0
 291 0198 20E0      		ldi r18,hi8(GPTD1)
 292 019a 8030      		cpi r24,lo8(GPTD1)
 293 019c 9207      		cpc r25,r18
 294 019e 01F0      		breq .L17
 314:../../../os/hal/platforms/AVR/gpt_lld.c ****   {
 315:../../../os/hal/platforms/AVR/gpt_lld.c ****       TCCR1B  &= ~(0x07 <<CS10);
 316:../../../os/hal/platforms/AVR/gpt_lld.c ****       TIMSK1  &= ~(1 << OCIE1A);
 317:../../../os/hal/platforms/AVR/gpt_lld.c ****       TIFR1   = (1 << OCF1A); 
 318:../../../os/hal/platforms/AVR/gpt_lld.c ****   }
 319:../../../os/hal/platforms/AVR/gpt_lld.c **** #endif
 320:../../../os/hal/platforms/AVR/gpt_lld.c ****     #if USE_AVR_GPT2 || defined(__DOXYGEN__)
 321:../../../os/hal/platforms/AVR/gpt_lld.c ****   if(gptp == &GPTD2)
 295               		.loc 1 321 0
 296 01a0 8050      		subi r24,lo8(GPTD2)
 297 01a2 9040      		sbci r25,hi8(GPTD2)
 298 01a4 01F0      		breq .L18
 299 01a6 0895      		ret
 300               	.L18:
 301               	.LBB4:
 302               	.LBB5:
 322:../../../os/hal/platforms/AVR/gpt_lld.c ****   {
 323:../../../os/hal/platforms/AVR/gpt_lld.c ****       TCCR2B  &= ~(0x07 <<CS20);
 303               		.loc 1 323 0
 304 01a8 8091 B100 		lds r24,177
 305               	.LVL18:
 306 01ac 887F      		andi r24,lo8(-8)
 307 01ae 8093 B100 		sts 177,r24
 324:../../../os/hal/platforms/AVR/gpt_lld.c ****       TIMSK2  &= ~(1 << OCIE2A);
 308               		.loc 1 324 0
 309 01b2 8091 7000 		lds r24,112
 310 01b6 8D7F      		andi r24,lo8(-3)
 311 01b8 8093 7000 		sts 112,r24
 325:../../../os/hal/platforms/AVR/gpt_lld.c ****       TIFR2   = (1 << OCF2A); 
 312               		.loc 1 325 0
 313 01bc 82E0      		ldi r24,lo8(2)
 314 01be 87BB      		out 0x17,r24
 315 01c0 0895      		ret
 316               	.LVL19:
 317               	.L17:
 318               	.LBE5:
 319               	.LBE4:
 315:../../../os/hal/platforms/AVR/gpt_lld.c ****       TCCR1B  &= ~(0x07 <<CS10);
 320               		.loc 1 315 0
 321 01c2 8091 8100 		lds r24,129
 322               	.LVL20:
 323 01c6 887F      		andi r24,lo8(-8)
 324 01c8 8093 8100 		sts 129,r24
 316:../../../os/hal/platforms/AVR/gpt_lld.c ****       TIMSK1  &= ~(1 << OCIE1A);
 325               		.loc 1 316 0
 326 01cc 8091 6F00 		lds r24,111
 327 01d0 8D7F      		andi r24,lo8(-3)
 328 01d2 8093 6F00 		sts 111,r24
 317:../../../os/hal/platforms/AVR/gpt_lld.c ****       TIFR1   = (1 << OCF1A); 
 329               		.loc 1 317 0
 330 01d6 82E0      		ldi r24,lo8(2)
 331 01d8 86BB      		out 0x16,r24
 332 01da 0895      		ret
 333               	.LFE8:
 335               	.global	gpt_lld_stop
 337               	gpt_lld_stop:
 338               	.LFB6:
 234:../../../os/hal/platforms/AVR/gpt_lld.c **** void gpt_lld_stop(GPTDriver *gptp) {
 339               		.loc 1 234 0
 340               	.LVL21:
 341               	/* prologue: function */
 342               	/* frame size = 0 */
 343               	/* stack size = 0 */
 344               	.L__stack_usage = 0
 236:../../../os/hal/platforms/AVR/gpt_lld.c ****   if (gptp->state == GPT_READY) {
 345               		.loc 1 236 0
 346 01dc FC01      		movw r30,r24
 347 01de 2081      		ld r18,Z
 240:../../../os/hal/platforms/AVR/gpt_lld.c ****   gpt_lld_stop_timer(gptp);
 348               		.loc 1 240 0
 349 01e0 0C94 0000 		jmp gpt_lld_stop_timer
 350               	.LVL22:
 351               	.LFE6:
 354               	gpt_lld_serve_interrupt.part.1:
 355               	.LFB11:
  63:../../../os/hal/platforms/AVR/gpt_lld.c **** static void gpt_lld_serve_interrupt(GPTDriver *gptp) {
 356               		.loc 1 63 0
 357               	.LVL23:
 358 01e4 CF93      		push r28
 359               	.LCFI4:
 360 01e6 DF93      		push r29
 361               	.LCFI5:
 362               	/* prologue: function */
 363               	/* frame size = 0 */
 364               	/* stack size = 2 */
 365               	.L__stack_usage = 2
 366 01e8 EC01      		movw r28,r24
  68:../../../os/hal/platforms/AVR/gpt_lld.c **** 	gptp->counter = 0;
 367               		.loc 1 68 0
 368 01ea 1F82      		std Y+7,__zero_reg__
 369 01ec 1E82      		std Y+6,__zero_reg__
  69:../../../os/hal/platforms/AVR/gpt_lld.c **** 	if (gptp->state == GPT_ONESHOT) {
 370               		.loc 1 69 0
 371 01ee 8881      		ld r24,Y
 372               	.LVL24:
 373 01f0 8430      		cpi r24,lo8(4)
 374 01f2 01F0      		breq .L22
  73:../../../os/hal/platforms/AVR/gpt_lld.c **** 	gptp->callback(gptp);
 375               		.loc 1 73 0
 376 01f4 E885      		ldd r30,Y+8
 377 01f6 F985      		ldd r31,Y+9
 378 01f8 CE01      		movw r24,r28
 379               	/* epilogue start */
  77:../../../os/hal/platforms/AVR/gpt_lld.c **** }
 380               		.loc 1 77 0
 381 01fa DF91      		pop r29
 382 01fc CF91      		pop r28
 383               	.LVL25:
  73:../../../os/hal/platforms/AVR/gpt_lld.c **** 	gptp->callback(gptp);
 384               		.loc 1 73 0
 385 01fe 1994      		eijmp
 386               	.LVL26:
 387               	.L22:
  70:../../../os/hal/platforms/AVR/gpt_lld.c **** 	    gptp->state = GPT_READY;                /* Back in GPT_READY state.     */
 388               		.loc 1 70 0
 389 0200 82E0      		ldi r24,lo8(2)
 390 0202 8883      		st Y,r24
  71:../../../os/hal/platforms/AVR/gpt_lld.c **** 	    gpt_lld_stop_timer(gptp);               /* Timer automatically stopped. */
 391               		.loc 1 71 0
 392 0204 CE01      		movw r24,r28
 393 0206 0E94 0000 		call gpt_lld_stop_timer
 394               	.LVL27:
  73:../../../os/hal/platforms/AVR/gpt_lld.c **** 	gptp->callback(gptp);
 395               		.loc 1 73 0
 396 020a E885      		ldd r30,Y+8
 397 020c F985      		ldd r31,Y+9
 398 020e CE01      		movw r24,r28
 399               	/* epilogue start */
  77:../../../os/hal/platforms/AVR/gpt_lld.c **** }
 400               		.loc 1 77 0
 401 0210 DF91      		pop r29
 402 0212 CF91      		pop r28
 403               	.LVL28:
  73:../../../os/hal/platforms/AVR/gpt_lld.c **** 	gptp->callback(gptp);
 404               		.loc 1 73 0
 405 0214 1994      		eijmp
 406               	.LVL29:
 407               	.LFE11:
 409               	.global	__vector_13
 411               	__vector_13:
 412               	.LFB3:
  97:../../../os/hal/platforms/AVR/gpt_lld.c **** CH_IRQ_HANDLER(TIMER2_COMPA_vect) {
 413               		.loc 1 97 0
 414 0216 1F92      		push r1
 415               	.LCFI6:
 416 0218 0F92      		push r0
 417               	.LCFI7:
 418 021a 0FB6      		in r0,__SREG__
 419 021c 0F92      		push r0
 420 021e 1124      		clr __zero_reg__
 421 0220 0BB6      		in r0,__RAMPZ__
 422 0222 0F92      		push r0
 423 0224 1BBE      		out __RAMPZ__,__zero_reg__
 424 0226 2F93      		push r18
 425               	.LCFI8:
 426 0228 3F93      		push r19
 427               	.LCFI9:
 428 022a 4F93      		push r20
 429               	.LCFI10:
 430 022c 5F93      		push r21
 431               	.LCFI11:
 432 022e 6F93      		push r22
 433               	.LCFI12:
 434 0230 7F93      		push r23
 435               	.LCFI13:
 436 0232 8F93      		push r24
 437               	.LCFI14:
 438 0234 9F93      		push r25
 439               	.LCFI15:
 440 0236 AF93      		push r26
 441               	.LCFI16:
 442 0238 BF93      		push r27
 443               	.LCFI17:
 444 023a EF93      		push r30
 445               	.LCFI18:
 446 023c FF93      		push r31
 447               	.LCFI19:
 448               	/* prologue: Signal */
 449               	/* frame size = 0 */
 450               	/* stack size = 16 */
 451               	.L__stack_usage = 16
  98:../../../os/hal/platforms/AVR/gpt_lld.c ****     CH_IRQ_PROLOGUE();
 452               		.loc 1 98 0
 453 023e 0E94 0000 		call dbg_check_enter_isr
 454               	.LVL30:
 455               	.LBB8:
 456               	.LBB9:
  65:../../../os/hal/platforms/AVR/gpt_lld.c ****   gptp->counter++;
 457               		.loc 1 65 0
 458 0242 8091 0000 		lds r24,GPTD2+6
 459 0246 9091 0000 		lds r25,GPTD2+6+1
 460 024a 0196      		adiw r24,1
 461 024c 9093 0000 		sts GPTD2+6+1,r25
 462 0250 8093 0000 		sts GPTD2+6,r24
  66:../../../os/hal/platforms/AVR/gpt_lld.c ****   if(gptp->counter == gptp->period)
 463               		.loc 1 66 0
 464 0254 2091 0000 		lds r18,GPTD2+4
 465 0258 3091 0000 		lds r19,GPTD2+4+1
 466 025c 8217      		cp r24,r18
 467 025e 9307      		cpc r25,r19
 468 0260 01F4      		brne .L24
 469 0262 80E0      		ldi r24,lo8(GPTD2)
 470 0264 90E0      		ldi r25,hi8(GPTD2)
 471 0266 0E94 0000 		call gpt_lld_serve_interrupt.part.1
 472               	.LVL31:
 473               	.L24:
 474               	.LBE9:
 475               	.LBE8:
 100:../../../os/hal/platforms/AVR/gpt_lld.c ****     CH_IRQ_EPILOGUE();
 476               		.loc 1 100 0
 477 026a 0E94 0000 		call dbg_check_leave_isr
 478               	.LVL32:
 479 026e 0E94 0000 		call dbg_check_lock
 480               	.LVL33:
 481 0272 0E94 0000 		call chSchIsPreemptionRequired
 482               	.LVL34:
 483 0276 8111      		cpse r24,__zero_reg__
 100:../../../os/hal/platforms/AVR/gpt_lld.c ****     CH_IRQ_EPILOGUE();
 484               		.loc 1 100 0 is_stmt 0 discriminator 1
 485 0278 0E94 0000 		call chSchDoReschedule
 486               	.LVL35:
 487               	.L25:
 100:../../../os/hal/platforms/AVR/gpt_lld.c ****     CH_IRQ_EPILOGUE();
 488               		.loc 1 100 0 discriminator 2
 489 027c 0E94 0000 		call dbg_check_unlock
 490               	.LVL36:
 491               	/* epilogue start */
 101:../../../os/hal/platforms/AVR/gpt_lld.c **** }
 492               		.loc 1 101 0 is_stmt 1 discriminator 2
 493 0280 FF91      		pop r31
 494 0282 EF91      		pop r30
 495 0284 BF91      		pop r27
 496 0286 AF91      		pop r26
 497 0288 9F91      		pop r25
 498 028a 8F91      		pop r24
 499 028c 7F91      		pop r23
 500 028e 6F91      		pop r22
 501 0290 5F91      		pop r21
 502 0292 4F91      		pop r20
 503 0294 3F91      		pop r19
 504 0296 2F91      		pop r18
 505 0298 0F90      		pop r0
 506 029a 0BBE      		out __RAMPZ__,r0
 507 029c 0F90      		pop r0
 508 029e 0FBE      		out __SREG__,r0
 509 02a0 0F90      		pop r0
 510 02a2 1F90      		pop r1
 511 02a4 1895      		reti
 512               	.LFE3:
 514               	.global	__vector_17
 516               	__vector_17:
 517               	.LFB2:
  89:../../../os/hal/platforms/AVR/gpt_lld.c **** CH_IRQ_HANDLER(TIMER1_COMPA_vect) {
 518               		.loc 1 89 0
 519 02a6 1F92      		push r1
 520               	.LCFI20:
 521 02a8 0F92      		push r0
 522               	.LCFI21:
 523 02aa 0FB6      		in r0,__SREG__
 524 02ac 0F92      		push r0
 525 02ae 1124      		clr __zero_reg__
 526 02b0 0BB6      		in r0,__RAMPZ__
 527 02b2 0F92      		push r0
 528 02b4 1BBE      		out __RAMPZ__,__zero_reg__
 529 02b6 2F93      		push r18
 530               	.LCFI22:
 531 02b8 3F93      		push r19
 532               	.LCFI23:
 533 02ba 4F93      		push r20
 534               	.LCFI24:
 535 02bc 5F93      		push r21
 536               	.LCFI25:
 537 02be 6F93      		push r22
 538               	.LCFI26:
 539 02c0 7F93      		push r23
 540               	.LCFI27:
 541 02c2 8F93      		push r24
 542               	.LCFI28:
 543 02c4 9F93      		push r25
 544               	.LCFI29:
 545 02c6 AF93      		push r26
 546               	.LCFI30:
 547 02c8 BF93      		push r27
 548               	.LCFI31:
 549 02ca EF93      		push r30
 550               	.LCFI32:
 551 02cc FF93      		push r31
 552               	.LCFI33:
 553               	/* prologue: Signal */
 554               	/* frame size = 0 */
 555               	/* stack size = 16 */
 556               	.L__stack_usage = 16
  90:../../../os/hal/platforms/AVR/gpt_lld.c ****     CH_IRQ_PROLOGUE();
 557               		.loc 1 90 0
 558 02ce 0E94 0000 		call dbg_check_enter_isr
 559               	.LVL37:
 560               	.LBB12:
 561               	.LBB13:
  65:../../../os/hal/platforms/AVR/gpt_lld.c ****   gptp->counter++;
 562               		.loc 1 65 0
 563 02d2 8091 0000 		lds r24,GPTD1+6
 564 02d6 9091 0000 		lds r25,GPTD1+6+1
 565 02da 0196      		adiw r24,1
 566 02dc 9093 0000 		sts GPTD1+6+1,r25
 567 02e0 8093 0000 		sts GPTD1+6,r24
  66:../../../os/hal/platforms/AVR/gpt_lld.c ****   if(gptp->counter == gptp->period)
 568               		.loc 1 66 0
 569 02e4 2091 0000 		lds r18,GPTD1+4
 570 02e8 3091 0000 		lds r19,GPTD1+4+1
 571 02ec 8217      		cp r24,r18
 572 02ee 9307      		cpc r25,r19
 573 02f0 01F4      		brne .L30
 574 02f2 80E0      		ldi r24,lo8(GPTD1)
 575 02f4 90E0      		ldi r25,hi8(GPTD1)
 576 02f6 0E94 0000 		call gpt_lld_serve_interrupt.part.1
 577               	.LVL38:
 578               	.L30:
 579               	.LBE13:
 580               	.LBE12:
  92:../../../os/hal/platforms/AVR/gpt_lld.c ****     CH_IRQ_EPILOGUE();
 581               		.loc 1 92 0
 582 02fa 0E94 0000 		call dbg_check_leave_isr
 583               	.LVL39:
 584 02fe 0E94 0000 		call dbg_check_lock
 585               	.LVL40:
 586 0302 0E94 0000 		call chSchIsPreemptionRequired
 587               	.LVL41:
 588 0306 8111      		cpse r24,__zero_reg__
  92:../../../os/hal/platforms/AVR/gpt_lld.c ****     CH_IRQ_EPILOGUE();
 589               		.loc 1 92 0 is_stmt 0 discriminator 1
 590 0308 0E94 0000 		call chSchDoReschedule
 591               	.LVL42:
 592               	.L31:
  92:../../../os/hal/platforms/AVR/gpt_lld.c ****     CH_IRQ_EPILOGUE();
 593               		.loc 1 92 0 discriminator 2
 594 030c 0E94 0000 		call dbg_check_unlock
 595               	.LVL43:
 596               	/* epilogue start */
  93:../../../os/hal/platforms/AVR/gpt_lld.c **** }
 597               		.loc 1 93 0 is_stmt 1 discriminator 2
 598 0310 FF91      		pop r31
 599 0312 EF91      		pop r30
 600 0314 BF91      		pop r27
 601 0316 AF91      		pop r26
 602 0318 9F91      		pop r25
 603 031a 8F91      		pop r24
 604 031c 7F91      		pop r23
 605 031e 6F91      		pop r22
 606 0320 5F91      		pop r21
 607 0322 4F91      		pop r20
 608 0324 3F91      		pop r19
 609 0326 2F91      		pop r18
 610 0328 0F90      		pop r0
 611 032a 0BBE      		out __RAMPZ__,r0
 612 032c 0F90      		pop r0
 613 032e 0FBE      		out __SREG__,r0
 614 0330 0F90      		pop r0
 615 0332 1F90      		pop r1
 616 0334 1895      		reti
 617               	.LFE2:
 619               	.global	gpt_lld_polled_delay
 621               	gpt_lld_polled_delay:
 622               	.LFB9:
 326:../../../os/hal/platforms/AVR/gpt_lld.c ****   }
 327:../../../os/hal/platforms/AVR/gpt_lld.c **** #endif
 328:../../../os/hal/platforms/AVR/gpt_lld.c ****     #if USE_AVR_GPT3 || defined(__DOXYGEN__)
 329:../../../os/hal/platforms/AVR/gpt_lld.c ****   if(gptp == &GPTD3)
 330:../../../os/hal/platforms/AVR/gpt_lld.c ****   {
 331:../../../os/hal/platforms/AVR/gpt_lld.c ****       TCCR3B  &= ~(0x07 <<CS10);
 332:../../../os/hal/platforms/AVR/gpt_lld.c ****       TIMSK3  &= ~(1 << OCIE1A);
 333:../../../os/hal/platforms/AVR/gpt_lld.c ****       TIFR3   = (1 << OCF1A); 
 334:../../../os/hal/platforms/AVR/gpt_lld.c ****   }
 335:../../../os/hal/platforms/AVR/gpt_lld.c **** #endif
 336:../../../os/hal/platforms/AVR/gpt_lld.c ****     #if USE_AVR_GPT4 || defined(__DOXYGEN__)
 337:../../../os/hal/platforms/AVR/gpt_lld.c ****   if(gptp == &GPTD4)
 338:../../../os/hal/platforms/AVR/gpt_lld.c ****   {
 339:../../../os/hal/platforms/AVR/gpt_lld.c ****       TCCR4B  &= ~(0x07 <<CS10);
 340:../../../os/hal/platforms/AVR/gpt_lld.c ****       TIMSK4  &= ~(1 << OCIE1A);
 341:../../../os/hal/platforms/AVR/gpt_lld.c ****       TIFR4   = (1 << OCF1A); 
 342:../../../os/hal/platforms/AVR/gpt_lld.c ****   }
 343:../../../os/hal/platforms/AVR/gpt_lld.c **** #endif
 344:../../../os/hal/platforms/AVR/gpt_lld.c ****     #if USE_AVR_GPT5 || defined(__DOXYGEN__)
 345:../../../os/hal/platforms/AVR/gpt_lld.c ****   if(gptp == &GPTD5)
 346:../../../os/hal/platforms/AVR/gpt_lld.c ****   {
 347:../../../os/hal/platforms/AVR/gpt_lld.c ****       TCCR5B  &= ~(0x07 <<CS10);
 348:../../../os/hal/platforms/AVR/gpt_lld.c ****       TIMSK5  &= ~(1 << OCIE1A);
 349:../../../os/hal/platforms/AVR/gpt_lld.c ****       TIFR5   = (1 << OCF1A); 
 350:../../../os/hal/platforms/AVR/gpt_lld.c ****   }
 351:../../../os/hal/platforms/AVR/gpt_lld.c **** #endif
 352:../../../os/hal/platforms/AVR/gpt_lld.c ****   /*disable timer
 353:../../../os/hal/platforms/AVR/gpt_lld.c ****    * clear interrupt*/
 354:../../../os/hal/platforms/AVR/gpt_lld.c **** }
 355:../../../os/hal/platforms/AVR/gpt_lld.c **** 
 356:../../../os/hal/platforms/AVR/gpt_lld.c **** /**
 357:../../../os/hal/platforms/AVR/gpt_lld.c ****  * @brief   Starts the timer in one shot mode and waits for completion.
 358:../../../os/hal/platforms/AVR/gpt_lld.c ****  * @details This function specifically polls the timer waiting for completion
 359:../../../os/hal/platforms/AVR/gpt_lld.c ****  *          in order to not have extra delays caused by interrupt servicing,
 360:../../../os/hal/platforms/AVR/gpt_lld.c ****  *          this function is only recommended for short delays.
 361:../../../os/hal/platforms/AVR/gpt_lld.c ****  *
 362:../../../os/hal/platforms/AVR/gpt_lld.c ****  * @param[in] gptp      pointer to the @p GPTDriver object
 363:../../../os/hal/platforms/AVR/gpt_lld.c ****  * @param[in] interval  time interval in ticks
 364:../../../os/hal/platforms/AVR/gpt_lld.c ****  *
 365:../../../os/hal/platforms/AVR/gpt_lld.c ****  * @notapi
 366:../../../os/hal/platforms/AVR/gpt_lld.c ****  */
 367:../../../os/hal/platforms/AVR/gpt_lld.c **** void gpt_lld_polled_delay(GPTDriver *gptp, gptcnt_t interval) {
 623               		.loc 1 367 0
 624               	.LVL44:
 625 0336 CF93      		push r28
 626               	.LCFI34:
 627 0338 DF93      		push r29
 628               	.LCFI35:
 629               	/* prologue: function */
 630               	/* frame size = 0 */
 631               	/* stack size = 2 */
 632               	.L__stack_usage = 2
 633 033a EC01      		movw r28,r24
 368:../../../os/hal/platforms/AVR/gpt_lld.c ****   gptp->callback = gpt_lld_dummy_callback;
 634               		.loc 1 368 0
 635 033c 80E0      		ldi r24,lo8(gs(gpt_lld_dummy_callback))
 636 033e 90E0      		ldi r25,hi8(gs(gpt_lld_dummy_callback))
 637               	.LVL45:
 638 0340 9987      		std Y+9,r25
 639 0342 8887      		std Y+8,r24
 369:../../../os/hal/platforms/AVR/gpt_lld.c ****   gpt_lld_start_timer(gptp,interval);
 640               		.loc 1 369 0
 641 0344 CE01      		movw r24,r28
 642 0346 0E94 0000 		call gpt_lld_start_timer
 643               	.LVL46:
 644               	.L36:
 370:../../../os/hal/platforms/AVR/gpt_lld.c ****   while(gptp->state != GPT_READY)
 645               		.loc 1 370 0 discriminator 1
 646 034a 8881      		ld r24,Y
 647 034c 8230      		cpi r24,lo8(2)
 648 034e 01F4      		brne .L36
 649               	/* epilogue start */
 371:../../../os/hal/platforms/AVR/gpt_lld.c ****      ;
 372:../../../os/hal/platforms/AVR/gpt_lld.c ****   return;
 373:../../../os/hal/platforms/AVR/gpt_lld.c **** }
 650               		.loc 1 373 0
 651 0350 DF91      		pop r29
 652 0352 CF91      		pop r28
 653               	.LVL47:
 654 0354 0895      		ret
 655               	.LFE9:
 657               		.comm	GPTD2,10,1
 658               		.comm	GPTD1,10,1
 973               	.Letext0:
 974               		.file 2 "/usr/lib/gcc/avr/4.7.0/../../../avr/include/stdint.h"
 975               		.file 3 "../../../os/ports/GCC/AVR/chtypes.h"
 976               		.file 4 "../../../os/hal/include/gpt.h"
 977               		.file 5 "../../../os/hal/platforms/AVR/gpt_lld.h"
 978               		.file 6 "../../../os/hal/platforms/AVR/atmega_timers.h"
 979               		.file 7 "../../../os/kernel/include/chdebug.h"
 980               		.file 8 "../../../os/kernel/include/chschd.h"
DEFINED SYMBOLS
                            *ABS*:0000000000000000 gpt_lld.c
     /tmp/ccjwcguA.s:2      *ABS*:000000000000003e __SP_H__
     /tmp/ccjwcguA.s:3      *ABS*:000000000000003d __SP_L__
     /tmp/ccjwcguA.s:4      *ABS*:000000000000003f __SREG__
     /tmp/ccjwcguA.s:5      *ABS*:000000000000003b __RAMPZ__
     /tmp/ccjwcguA.s:6      *ABS*:0000000000000000 __tmp_reg__
     /tmp/ccjwcguA.s:7      *ABS*:0000000000000001 __zero_reg__
     /tmp/ccjwcguA.s:11     .text:0000000000000000 gpt_lld_dummy_callback
     /tmp/ccjwcguA.s:25     .text:0000000000000002 gpt_lld_init
                            *COM*:000000000000000a GPTD1
                            *COM*:000000000000000a GPTD2
     /tmp/ccjwcguA.s:46     .text:0000000000000012 gpt_lld_start
     /tmp/ccjwcguA.s:214    .text:0000000000000132 gpt_lld_start_timer
     /tmp/ccjwcguA.s:282    .text:0000000000000198 gpt_lld_stop_timer
     /tmp/ccjwcguA.s:337    .text:00000000000001dc gpt_lld_stop
     /tmp/ccjwcguA.s:354    .text:00000000000001e4 gpt_lld_serve_interrupt.part.1
     /tmp/ccjwcguA.s:411    .text:0000000000000216 __vector_13
     /tmp/ccjwcguA.s:516    .text:00000000000002a6 __vector_17
     /tmp/ccjwcguA.s:621    .text:0000000000000336 gpt_lld_polled_delay

UNDEFINED SYMBOLS
gptObjectInit
clock_source_extended
ratio_extended
findBestPrescaler
__udivmodsi4
clock_source_base
ratio_base
dbg_check_enter_isr
dbg_check_leave_isr
dbg_check_lock
chSchIsPreemptionRequired
chSchDoReschedule
dbg_check_unlock
__do_clear_bss
